; Function Attrs: mustprogress uwtable
define noundef double @_ZNK2cv7MatExpr3dotERKNS_3MatE(ptr noundef nonnull align 8 dereferenceable(352) %0, ptr noundef nonnull align 8 dereferenceable(96) %1) local_unnamed_addr #8 align 2 personality ptr @__gxx_personality_v0 {
  %3 = alloca %"class.cv::Mat", align 8
  %4 = alloca %"class.cv::_InputArray", align 8
  call void @_ZN2cv3MatC1Ev(ptr noundef nonnull align 8 dereferenceable(96) %3) #21
  %5 = load ptr, ptr %0, align 8, !noalias !19
  %6 = load ptr, ptr %5, align 8
  %7 = getelementptr inbounds i8, ptr %6, i64 24
  %8 = load ptr, ptr %7, align 8
  invoke void %8(ptr noundef nonnull align 8 dereferenceable(8) %5, ptr noundef nonnull align 8 dereferenceable(352) %0, ptr noundef nonnull align 8 dereferenceable(96) %3, i32 noundef -1)
          to label %11 unwind label %9

common.resume:                                    ; preds = %17, %9
  %common.resume.op = phi { ptr, i32 } [ %10, %9 ], [ %18, %17 ]
  call void @_ZN2cv3MatD1Ev(ptr noundef nonnull align 8 dereferenceable(96) %3) #21
  resume { ptr, i32 } %common.resume.op

9:                                                ; preds = %2
  %10 = landingpad { ptr, i32 }
          cleanup
  br label %common.resume

11:                                               ; preds = %2
  %12 = getelementptr inbounds i8, ptr %4, i64 16
  store i32 0, ptr %12, align 8
  %13 = getelementptr inbounds i8, ptr %4, i64 20
  store i32 0, ptr %13, align 4
  store i32 16842752, ptr %4, align 8
  %14 = getelementptr inbounds i8, ptr %4, i64 8
  store ptr %1, ptr %14, align 8
  %15 = invoke noundef double @_ZNK2cv3Mat3dotERKNS_11_InputArrayE(ptr noundef nonnull align 8 dereferenceable(96) %3, ptr noundef nonnull align 8 dereferenceable(24) %4)
          to label %16 unwind label %17

16:                                               ; preds = %11
  call void @_ZN2cv3MatD1Ev(ptr noundef nonnull align 8 dereferenceable(96) %3) #21
  ret double %15

17:                                               ; preds = %11
  %18 = landingpad { ptr, i32 }
          cleanup
  br label %common.resume
}